; Listing generated by Microsoft (R) Optimizing Compiler Version 19.00.24215.1 

	TITLE	D:\code\qt\MyPeTools\MyPeTools\Debug\moc\moc_cfilewidget.cpp
	.686P
	.XMM
	include listing.inc
	.model	flat

INCLUDELIB MSVCRTD
INCLUDELIB OLDNAMES

PUBLIC	?staticMetaObject@CFileWidget@@2UQMetaObject@@B	; CFileWidget::staticMetaObject
PUBLIC	?qt_static_metacall@CFileWidget@@CAXPAVQObject@@W4Call@QMetaObject@@HPAPAX@Z ; CFileWidget::qt_static_metacall
EXTRN	?staticMetaObject@CMyTableWidget@@2UQMetaObject@@B:BYTE ; CMyTableWidget::staticMetaObject
CONST	SEGMENT
$SG199704 DB	'D:\Qt\Qt5.9.8\5.9.8\msvc2015\include\QtCore/qmetatype.h', 00H
$SG199705 DB	'qRegisterNormalizedMetaType was called with a not normal'
	DB	'ized type name, please call qRegisterMetaType instead.', 00H
	ORG $+1
$SG199706 DB	'qRegisterNormalizedMetaType', 00H
$SG200766 DB	'D:\Qt\Qt5.9.8\5.9.8\msvc2015\include\QtCore/qmetatype.h', 00H
	ORG $+4
$SG200767 DB	'qRegisterNormalizedMetaType was called with a not normal'
	DB	'ized type name, please call qRegisterMetaType instead.', 00H
	ORG $+1
$SG200768 DB	'qRegisterNormalizedMetaType', 00H
?staticMetaObject@CFileWidget@@2UQMetaObject@@B DD FLAT:?staticMetaObject@CMyTableWidget@@2UQMetaObject@@B ; CFileWidget::staticMetaObject
	DD	FLAT:?qt_meta_stringdata_CFileWidget@@3Uqt_meta_stringdata_CFileWidget_t@@B
	DD	FLAT:?qt_meta_data_CFileWidget@@3QBIB
	DD	FLAT:?qt_static_metacall@CFileWidget@@CAXPAVQObject@@W4Call@QMetaObject@@HPAPAX@Z
	DD	00H
	DD	00H
$SG197953 DB	'D:\Qt\Qt5.9.8\5.9.8\msvc2015\include\QtCore/qmetatype.h', 00H
	ORG $+4
$SG197954 DB	'qRegisterNormalizedMetaType was called with a not normal'
	DB	'ized type name, please call qRegisterMetaType instead.', 00H
	ORG $+1
$SG197955 DB	'qRegisterNormalizedMetaType', 00H
$SG200006 DB	'D:\Qt\Qt5.9.8\5.9.8\msvc2015\include\QtCore/qmetatype.h', 00H
	ORG $+4
$SG200007 DB	'qRegisterNormalizedMetaType was called with a not normal'
	DB	'ized type name, please call qRegisterMetaType instead.', 00H
	ORG $+1
$SG200008 DB	'qRegisterNormalizedMetaType', 00H
?qt_meta_stringdata_CFileWidget@@3Uqt_meta_stringdata_CFileWidget_t@@B DD 0ffffffffH ; qt_meta_stringdata_CFileWidget
	DD	0bH
	DD	00H
	DD	010H
	DB	'CFileWidget', 00H
?qt_meta_data_CFileWidget@@3QBIB DD 07H			; qt_meta_data_CFileWidget
	DD	00H
	DD	00H
	DD	00H
	DD	00H
	DD	00H
	DD	00H
	DD	00H
	DD	00H
	DD	00H
	DD	00H
	DD	00H
	DD	00H
	DD	00H
	DD	00H
$SG198255 DB	'D:\Qt\Qt5.9.8\5.9.8\msvc2015\include\QtCore/qmetatype.h', 00H
	ORG $+4
$SG198256 DB	'qRegisterNormalizedMetaType was called with a not normal'
	DB	'ized type name, please call qRegisterMetaType instead.', 00H
	ORG $+1
$SG198257 DB	'qRegisterNormalizedMetaType', 00H
$SG199402 DB	'D:\Qt\Qt5.9.8\5.9.8\msvc2015\include\QtCore/qmetatype.h', 00H
	ORG $+4
$SG199403 DB	'qRegisterNormalizedMetaType was called with a not normal'
	DB	'ized type name, please call qRegisterMetaType instead.', 00H
	ORG $+1
$SG199404 DB	'qRegisterNormalizedMetaType', 00H
$SG198557 DB	'D:\Qt\Qt5.9.8\5.9.8\msvc2015\include\QtCore/qmetatype.h', 00H
	ORG $+4
$SG198558 DB	'qRegisterNormalizedMetaType was called with a not normal'
	DB	'ized type name, please call qRegisterMetaType instead.', 00H
	ORG $+1
$SG198559 DB	'qRegisterNormalizedMetaType', 00H
CONST	ENDS
PUBLIC	?__empty_global_delete@@YAXPAX@Z		; __empty_global_delete
PUBLIC	?__empty_global_delete@@YAXPAXI@Z		; __empty_global_delete
PUBLIC	??C?$QScopedPointer@VQObjectData@@U?$QScopedPointerDeleter@VQObjectData@@@@@@QBEPAVQObjectData@@XZ ; QScopedPointer<QObjectData,QScopedPointerDeleter<QObjectData> >::operator->
PUBLIC	?metaObject@CFileWidget@@UBEPBUQMetaObject@@XZ	; CFileWidget::metaObject
PUBLIC	?qt_metacast@CFileWidget@@UAEPAXPBD@Z		; CFileWidget::qt_metacast
PUBLIC	?qt_metacall@CFileWidget@@UAEHW4Call@QMetaObject@@HPAPAX@Z ; CFileWidget::qt_metacall
EXTRN	_strcmp:PROC
EXTRN	__imp_?dynamicMetaObject@QObjectData@@QBEPAUQMetaObject@@XZ:PROC
EXTRN	?qt_metacast@CMyTableWidget@@UAEPAXPBD@Z:PROC	; CMyTableWidget::qt_metacast
EXTRN	?qt_metacall@CMyTableWidget@@UAEHW4Call@QMetaObject@@HPAPAX@Z:PROC ; CMyTableWidget::qt_metacall
; Function compile flags: /Odtp
_TEXT	SEGMENT
__o$ = 8						; size = 4
__c$ = 12						; size = 4
__id$ = 16						; size = 4
__a$ = 20						; size = 4
?qt_static_metacall@CFileWidget@@CAXPAVQObject@@W4Call@QMetaObject@@HPAPAX@Z PROC ; CFileWidget::qt_static_metacall
; File d:\code\qt\mypetools\mypetools\debug\moc\moc_cfilewidget.cpp
; Line 58
	push	ebp
	mov	ebp, esp
; Line 63
	pop	ebp
	ret	0
?qt_static_metacall@CFileWidget@@CAXPAVQObject@@W4Call@QMetaObject@@HPAPAX@Z ENDP ; CFileWidget::qt_static_metacall
_TEXT	ENDS
; Function compile flags: /Odtp
_TEXT	SEGMENT
_this$ = -4						; size = 4
__c$ = 8						; size = 4
__id$ = 12						; size = 4
__a$ = 16						; size = 4
?qt_metacall@CFileWidget@@UAEHW4Call@QMetaObject@@HPAPAX@Z PROC ; CFileWidget::qt_metacall
; _this$ = ecx
; File d:\code\qt\mypetools\mypetools\debug\moc\moc_cfilewidget.cpp
; Line 85
	push	ebp
	mov	ebp, esp
	push	ecx
	mov	DWORD PTR _this$[ebp], ecx
; Line 86
	mov	eax, DWORD PTR __a$[ebp]
	push	eax
	mov	ecx, DWORD PTR __id$[ebp]
	push	ecx
	mov	edx, DWORD PTR __c$[ebp]
	push	edx
	mov	ecx, DWORD PTR _this$[ebp]
	call	?qt_metacall@CMyTableWidget@@UAEHW4Call@QMetaObject@@HPAPAX@Z ; CMyTableWidget::qt_metacall
	mov	DWORD PTR __id$[ebp], eax
; Line 87
	mov	eax, DWORD PTR __id$[ebp]
; Line 88
	mov	esp, ebp
	pop	ebp
	ret	12					; 0000000cH
?qt_metacall@CFileWidget@@UAEHW4Call@QMetaObject@@HPAPAX@Z ENDP ; CFileWidget::qt_metacall
_TEXT	ENDS
; Function compile flags: /Odtp
_TEXT	SEGMENT
_this$ = -4						; size = 4
__clname$ = 8						; size = 4
?qt_metacast@CFileWidget@@UAEPAXPBD@Z PROC		; CFileWidget::qt_metacast
; _this$ = ecx
; File d:\code\qt\mypetools\mypetools\debug\moc\moc_cfilewidget.cpp
; Line 77
	push	ebp
	mov	ebp, esp
	push	ecx
	mov	DWORD PTR _this$[ebp], ecx
; Line 78
	cmp	DWORD PTR __clname$[ebp], 0
	jne	SHORT $LN2@qt_metacas
	xor	eax, eax
	jmp	SHORT $LN1@qt_metacas
$LN2@qt_metacas:
; Line 79
	push	OFFSET ?qt_meta_stringdata_CFileWidget@@3Uqt_meta_stringdata_CFileWidget_t@@B+16
	mov	eax, DWORD PTR __clname$[ebp]
	push	eax
	call	_strcmp
	add	esp, 8
	test	eax, eax
	jne	SHORT $LN3@qt_metacas
; Line 80
	mov	eax, DWORD PTR _this$[ebp]
	jmp	SHORT $LN1@qt_metacas
$LN3@qt_metacas:
; Line 81
	mov	ecx, DWORD PTR __clname$[ebp]
	push	ecx
	mov	ecx, DWORD PTR _this$[ebp]
	call	?qt_metacast@CMyTableWidget@@UAEPAXPBD@Z ; CMyTableWidget::qt_metacast
$LN1@qt_metacas:
; Line 82
	mov	esp, ebp
	pop	ebp
	ret	4
?qt_metacast@CFileWidget@@UAEPAXPBD@Z ENDP		; CFileWidget::qt_metacast
_TEXT	ENDS
; Function compile flags: /Odtp
_TEXT	SEGMENT
tv82 = -8						; size = 4
_this$ = -4						; size = 4
?metaObject@CFileWidget@@UBEPBUQMetaObject@@XZ PROC	; CFileWidget::metaObject
; _this$ = ecx
; File d:\code\qt\mypetools\mypetools\debug\moc\moc_cfilewidget.cpp
; Line 72
	push	ebp
	mov	ebp, esp
	sub	esp, 8
	mov	DWORD PTR _this$[ebp], ecx
; Line 73
	mov	ecx, DWORD PTR _this$[ebp]
	add	ecx, 4
	call	??C?$QScopedPointer@VQObjectData@@U?$QScopedPointerDeleter@VQObjectData@@@@@@QBEPAVQObjectData@@XZ ; QScopedPointer<QObjectData,QScopedPointerDeleter<QObjectData> >::operator->
	cmp	DWORD PTR [eax+24], 0
	je	SHORT $LN3@metaObject
	mov	ecx, DWORD PTR _this$[ebp]
	add	ecx, 4
	call	??C?$QScopedPointer@VQObjectData@@U?$QScopedPointerDeleter@VQObjectData@@@@@@QBEPAVQObjectData@@XZ ; QScopedPointer<QObjectData,QScopedPointerDeleter<QObjectData> >::operator->
	mov	ecx, eax
	call	DWORD PTR __imp_?dynamicMetaObject@QObjectData@@QBEPAUQMetaObject@@XZ
	mov	DWORD PTR tv82[ebp], eax
	jmp	SHORT $LN4@metaObject
$LN3@metaObject:
	mov	DWORD PTR tv82[ebp], OFFSET ?staticMetaObject@CFileWidget@@2UQMetaObject@@B ; CFileWidget::staticMetaObject
$LN4@metaObject:
	mov	eax, DWORD PTR tv82[ebp]
; Line 74
	mov	esp, ebp
	pop	ebp
	ret	0
?metaObject@CFileWidget@@UBEPBUQMetaObject@@XZ ENDP	; CFileWidget::metaObject
_TEXT	ENDS
; Function compile flags: /Odtp
;	COMDAT ??C?$QScopedPointer@VQObjectData@@U?$QScopedPointerDeleter@VQObjectData@@@@@@QBEPAVQObjectData@@XZ
_TEXT	SEGMENT
_this$ = -4						; size = 4
??C?$QScopedPointer@VQObjectData@@U?$QScopedPointerDeleter@VQObjectData@@@@@@QBEPAVQObjectData@@XZ PROC ; QScopedPointer<QObjectData,QScopedPointerDeleter<QObjectData> >::operator->, COMDAT
; _this$ = ecx
; File d:\qt\qt5.9.8\5.9.8\msvc2015\include\qtcore\qscopedpointer.h
; Line 117
	push	ebp
	mov	ebp, esp
	push	ecx
	mov	DWORD PTR _this$[ebp], ecx
; Line 118
	mov	eax, DWORD PTR _this$[ebp]
	mov	eax, DWORD PTR [eax]
; Line 119
	mov	esp, ebp
	pop	ebp
	ret	0
??C?$QScopedPointer@VQObjectData@@U?$QScopedPointerDeleter@VQObjectData@@@@@@QBEPAVQObjectData@@XZ ENDP ; QScopedPointer<QObjectData,QScopedPointerDeleter<QObjectData> >::operator->
_TEXT	ENDS
; Function compile flags: /Odtp
;	COMDAT ?__empty_global_delete@@YAXPAXI@Z
_TEXT	SEGMENT
___formal$ = 8						; size = 4
___formal$ = 12						; size = 4
?__empty_global_delete@@YAXPAXI@Z PROC			; __empty_global_delete, COMDAT
; File d:\code\qt\mypetools\mypetools\debug\moc\moc_cfilewidget.cpp
; Line 91
	push	ebp
	mov	ebp, esp
	pop	ebp
	ret	0
?__empty_global_delete@@YAXPAXI@Z ENDP			; __empty_global_delete
_TEXT	ENDS
; Function compile flags: /Odtp
;	COMDAT ?__empty_global_delete@@YAXPAX@Z
_TEXT	SEGMENT
___formal$ = 8						; size = 4
?__empty_global_delete@@YAXPAX@Z PROC			; __empty_global_delete, COMDAT
; File d:\code\qt\mypetools\mypetools\debug\moc\moc_cfilewidget.cpp
; Line 91
	push	ebp
	mov	ebp, esp
	pop	ebp
	ret	0
?__empty_global_delete@@YAXPAX@Z ENDP			; __empty_global_delete
_TEXT	ENDS
END
