; Listing generated by Microsoft (R) Optimizing Compiler Version 19.00.24215.1 

	TITLE	D:\code\qt\MyPeTools\MyPeTools\Debug\moc\moc_caddressconvertwidget.cpp
	.686P
	.XMM
	include listing.inc
	.model	flat

INCLUDELIB MSVCRTD
INCLUDELIB OLDNAMES

CONST	SEGMENT
$SG178337 DB	'D:\Qt\Qt5.9.8\5.9.8\msvc2015\include\QtCore/qmetatype.h', 00H
$SG178338 DB	'qRegisterNormalizedMetaType was called with a not normal'
	DB	'ized type name, please call qRegisterMetaType instead.', 00H
	ORG $+1
$SG178339 DB	'qRegisterNormalizedMetaType', 00H
$SG178639 DB	'D:\Qt\Qt5.9.8\5.9.8\msvc2015\include\QtCore/qmetatype.h', 00H
	ORG $+4
$SG178640 DB	'qRegisterNormalizedMetaType was called with a not normal'
	DB	'ized type name, please call qRegisterMetaType instead.', 00H
	ORG $+1
$SG178641 DB	'qRegisterNormalizedMetaType', 00H
$SG178035 DB	'D:\Qt\Qt5.9.8\5.9.8\msvc2015\include\QtCore/qmetatype.h', 00H
	ORG $+4
$SG178036 DB	'qRegisterNormalizedMetaType was called with a not normal'
	DB	'ized type name, please call qRegisterMetaType instead.', 00H
	ORG $+1
$SG178037 DB	'qRegisterNormalizedMetaType', 00H
	ORG $+4
?qt_meta_stringdata_CAddressConvertWidget@@3Uqt_meta_stringdata_CAddressConvertWidget_t@@B DD 0ffffffffH ; qt_meta_stringdata_CAddressConvertWidget
	DD	015H
	DD	00H
	DD	030H
	DD	0ffffffffH
	DD	013H
	DD	00H
	DD	036H
	DD	0ffffffffH
	DD	00H
	DD	00H
	DD	03aH
	DB	'CAddressConvertWidget', 00H, 'slot_AddressConvert', 00H, 00H
	ORG $+1
	ORG $+4
?qt_meta_data_CAddressConvertWidget@@3QBIB DD 07H	; qt_meta_data_CAddressConvertWidget
	DD	00H
	DD	00H
	DD	00H
	DD	01H
	DD	0eH
	DD	00H
	DD	00H
	DD	00H
	DD	00H
	DD	00H
	DD	00H
	DD	00H
	DD	00H
	DD	01H
	DD	00H
	DD	013H
	DD	02H
	DD	0aH
	DD	02bH
	DD	00H
CONST	ENDS
PUBLIC	?__empty_global_delete@@YAXPAX@Z		; __empty_global_delete
PUBLIC	?__empty_global_delete@@YAXPAXI@Z		; __empty_global_delete
PUBLIC	??C?$QScopedPointer@VQObjectData@@U?$QScopedPointerDeleter@VQObjectData@@@@@@QBEPAVQObjectData@@XZ ; QScopedPointer<QObjectData,QScopedPointerDeleter<QObjectData> >::operator->
PUBLIC	?metaObject@CAddressConvertWidget@@UBEPBUQMetaObject@@XZ ; CAddressConvertWidget::metaObject
PUBLIC	?qt_metacast@CAddressConvertWidget@@UAEPAXPBD@Z	; CAddressConvertWidget::qt_metacast
PUBLIC	?qt_metacall@CAddressConvertWidget@@UAEHW4Call@QMetaObject@@HPAPAX@Z ; CAddressConvertWidget::qt_metacall
PUBLIC	?qt_static_metacall@CAddressConvertWidget@@CAXPAVQObject@@W4Call@QMetaObject@@HPAPAX@Z ; CAddressConvertWidget::qt_static_metacall
PUBLIC	?staticMetaObject@CAddressConvertWidget@@2UQMetaObject@@B ; CAddressConvertWidget::staticMetaObject
EXTRN	_strcmp:PROC
EXTRN	__imp_?dynamicMetaObject@QObjectData@@QBEPAUQMetaObject@@XZ:PROC
EXTRN	__imp_?qt_metacast@QWidget@@UAEPAXPBD@Z:PROC
EXTRN	__imp_?qt_metacall@QWidget@@UAEHW4Call@QMetaObject@@HPAPAX@Z:PROC
EXTRN	?slot_AddressConvert@CAddressConvertWidget@@QAEXXZ:PROC ; CAddressConvertWidget::slot_AddressConvert
EXTRN	__imp_?staticMetaObject@QWidget@@2UQMetaObject@@B:BYTE
_BSS	SEGMENT
?staticMetaObject@CAddressConvertWidget@@2UQMetaObject@@B DB 018H DUP (?) ; CAddressConvertWidget::staticMetaObject
_BSS	ENDS
CRT$XCU	SEGMENT
??staticMetaObject$initializer$@CAddressConvertWidget@@2P6AXXZA@@3P6AXXZA DD FLAT:??__E?staticMetaObject@CAddressConvertWidget@@2UQMetaObject@@B@@YAXXZ ; ??staticMetaObject$initializer$@CAddressConvertWidget@@2P6AXXZA@@3P6AXXZA
CRT$XCU	ENDS
; Function compile flags: /Odtp
;	COMDAT ??__E?staticMetaObject@CAddressConvertWidget@@2UQMetaObject@@B@@YAXXZ
text$di	SEGMENT
??__E?staticMetaObject@CAddressConvertWidget@@2UQMetaObject@@B@@YAXXZ PROC ; `dynamic initializer for 'CAddressConvertWidget::staticMetaObject'', COMDAT
; File d:\code\qt\mypetools\mypetools\debug\moc\moc_caddressconvertwidget.cpp
; Line 82
	push	ebp
	mov	ebp, esp
; Line 80
	mov	eax, DWORD PTR __imp_?staticMetaObject@QWidget@@2UQMetaObject@@B
	mov	DWORD PTR ?staticMetaObject@CAddressConvertWidget@@2UQMetaObject@@B, eax
	mov	DWORD PTR ?staticMetaObject@CAddressConvertWidget@@2UQMetaObject@@B+4, OFFSET ?qt_meta_stringdata_CAddressConvertWidget@@3Uqt_meta_stringdata_CAddressConvertWidget_t@@B
; Line 81
	mov	DWORD PTR ?staticMetaObject@CAddressConvertWidget@@2UQMetaObject@@B+8, OFFSET ?qt_meta_data_CAddressConvertWidget@@3QBIB
	mov	DWORD PTR ?staticMetaObject@CAddressConvertWidget@@2UQMetaObject@@B+12, OFFSET ?qt_static_metacall@CAddressConvertWidget@@CAXPAVQObject@@W4Call@QMetaObject@@HPAPAX@Z ; CAddressConvertWidget::qt_static_metacall
	mov	DWORD PTR ?staticMetaObject@CAddressConvertWidget@@2UQMetaObject@@B+16, 0
	mov	DWORD PTR ?staticMetaObject@CAddressConvertWidget@@2UQMetaObject@@B+20, 0
	pop	ebp
	ret	0
??__E?staticMetaObject@CAddressConvertWidget@@2UQMetaObject@@B@@YAXXZ ENDP ; `dynamic initializer for 'CAddressConvertWidget::staticMetaObject''
text$di	ENDS
; Function compile flags: /Odtp
_TEXT	SEGMENT
__t$1 = -8						; size = 4
tv69 = -4						; size = 4
__o$ = 8						; size = 4
__c$ = 12						; size = 4
__id$ = 16						; size = 4
__a$ = 20						; size = 4
?qt_static_metacall@CAddressConvertWidget@@CAXPAVQObject@@W4Call@QMetaObject@@HPAPAX@Z PROC ; CAddressConvertWidget::qt_static_metacall
; File d:\code\qt\mypetools\mypetools\debug\moc\moc_caddressconvertwidget.cpp
; Line 67
	push	ebp
	mov	ebp, esp
	sub	esp, 8
; Line 68
	cmp	DWORD PTR __c$[ebp], 0
	jne	SHORT $LN1@qt_static_
; Line 69
	mov	eax, DWORD PTR __o$[ebp]
	mov	DWORD PTR __t$1[ebp], eax
; Line 71
	mov	ecx, DWORD PTR __id$[ebp]
	mov	DWORD PTR tv69[ebp], ecx
	cmp	DWORD PTR tv69[ebp], 0
	je	SHORT $LN5@qt_static_
	jmp	SHORT $LN1@qt_static_
$LN5@qt_static_:
; Line 72
	mov	ecx, DWORD PTR __t$1[ebp]
	call	?slot_AddressConvert@CAddressConvertWidget@@QAEXXZ ; CAddressConvertWidget::slot_AddressConvert
$LN1@qt_static_:
; Line 77
	mov	esp, ebp
	pop	ebp
	ret	0
?qt_static_metacall@CAddressConvertWidget@@CAXPAVQObject@@W4Call@QMetaObject@@HPAPAX@Z ENDP ; CAddressConvertWidget::qt_static_metacall
_TEXT	ENDS
; Function compile flags: /Odtp
_TEXT	SEGMENT
_this$ = -4						; size = 4
__c$ = 8						; size = 4
__id$ = 12						; size = 4
__a$ = 16						; size = 4
?qt_metacall@CAddressConvertWidget@@UAEHW4Call@QMetaObject@@HPAPAX@Z PROC ; CAddressConvertWidget::qt_metacall
; _this$ = ecx
; File d:\code\qt\mypetools\mypetools\debug\moc\moc_caddressconvertwidget.cpp
; Line 99
	push	ebp
	mov	ebp, esp
	push	ecx
	mov	DWORD PTR _this$[ebp], ecx
; Line 100
	mov	eax, DWORD PTR __a$[ebp]
	push	eax
	mov	ecx, DWORD PTR __id$[ebp]
	push	ecx
	mov	edx, DWORD PTR __c$[ebp]
	push	edx
	mov	ecx, DWORD PTR _this$[ebp]
	call	DWORD PTR __imp_?qt_metacall@QWidget@@UAEHW4Call@QMetaObject@@HPAPAX@Z
	mov	DWORD PTR __id$[ebp], eax
; Line 101
	cmp	DWORD PTR __id$[ebp], 0
	jge	SHORT $LN2@qt_metacal
; Line 102
	mov	eax, DWORD PTR __id$[ebp]
	jmp	SHORT $LN1@qt_metacal
$LN2@qt_metacal:
; Line 103
	cmp	DWORD PTR __c$[ebp], 0
	jne	SHORT $LN3@qt_metacal
; Line 104
	cmp	DWORD PTR __id$[ebp], 1
	jge	SHORT $LN5@qt_metacal
; Line 105
	mov	eax, DWORD PTR __a$[ebp]
	push	eax
	mov	ecx, DWORD PTR __id$[ebp]
	push	ecx
	mov	edx, DWORD PTR __c$[ebp]
	push	edx
	mov	eax, DWORD PTR _this$[ebp]
	push	eax
	call	?qt_static_metacall@CAddressConvertWidget@@CAXPAVQObject@@W4Call@QMetaObject@@HPAPAX@Z ; CAddressConvertWidget::qt_static_metacall
	add	esp, 16					; 00000010H
$LN5@qt_metacal:
; Line 106
	mov	ecx, DWORD PTR __id$[ebp]
	sub	ecx, 1
	mov	DWORD PTR __id$[ebp], ecx
	jmp	SHORT $LN4@qt_metacal
$LN3@qt_metacal:
; Line 107
	cmp	DWORD PTR __c$[ebp], 12			; 0000000cH
	jne	SHORT $LN4@qt_metacal
; Line 108
	cmp	DWORD PTR __id$[ebp], 1
	jge	SHORT $LN7@qt_metacal
; Line 109
	mov	edx, 4
	imul	eax, edx, 0
	mov	ecx, DWORD PTR __a$[ebp]
	mov	edx, DWORD PTR [ecx+eax]
	mov	DWORD PTR [edx], -1
$LN7@qt_metacal:
; Line 110
	mov	eax, DWORD PTR __id$[ebp]
	sub	eax, 1
	mov	DWORD PTR __id$[ebp], eax
$LN4@qt_metacal:
; Line 112
	mov	eax, DWORD PTR __id$[ebp]
$LN1@qt_metacal:
; Line 113
	mov	esp, ebp
	pop	ebp
	ret	12					; 0000000cH
?qt_metacall@CAddressConvertWidget@@UAEHW4Call@QMetaObject@@HPAPAX@Z ENDP ; CAddressConvertWidget::qt_metacall
_TEXT	ENDS
; Function compile flags: /Odtp
_TEXT	SEGMENT
_this$ = -4						; size = 4
__clname$ = 8						; size = 4
?qt_metacast@CAddressConvertWidget@@UAEPAXPBD@Z PROC	; CAddressConvertWidget::qt_metacast
; _this$ = ecx
; File d:\code\qt\mypetools\mypetools\debug\moc\moc_caddressconvertwidget.cpp
; Line 91
	push	ebp
	mov	ebp, esp
	push	ecx
	mov	DWORD PTR _this$[ebp], ecx
; Line 92
	cmp	DWORD PTR __clname$[ebp], 0
	jne	SHORT $LN2@qt_metacas
	xor	eax, eax
	jmp	SHORT $LN1@qt_metacas
$LN2@qt_metacas:
; Line 93
	push	OFFSET ?qt_meta_stringdata_CAddressConvertWidget@@3Uqt_meta_stringdata_CAddressConvertWidget_t@@B+48
	mov	eax, DWORD PTR __clname$[ebp]
	push	eax
	call	_strcmp
	add	esp, 8
	test	eax, eax
	jne	SHORT $LN3@qt_metacas
; Line 94
	mov	eax, DWORD PTR _this$[ebp]
	jmp	SHORT $LN1@qt_metacas
$LN3@qt_metacas:
; Line 95
	mov	ecx, DWORD PTR __clname$[ebp]
	push	ecx
	mov	ecx, DWORD PTR _this$[ebp]
	call	DWORD PTR __imp_?qt_metacast@QWidget@@UAEPAXPBD@Z
$LN1@qt_metacas:
; Line 96
	mov	esp, ebp
	pop	ebp
	ret	4
?qt_metacast@CAddressConvertWidget@@UAEPAXPBD@Z ENDP	; CAddressConvertWidget::qt_metacast
_TEXT	ENDS
; Function compile flags: /Odtp
_TEXT	SEGMENT
tv82 = -8						; size = 4
_this$ = -4						; size = 4
?metaObject@CAddressConvertWidget@@UBEPBUQMetaObject@@XZ PROC ; CAddressConvertWidget::metaObject
; _this$ = ecx
; File d:\code\qt\mypetools\mypetools\debug\moc\moc_caddressconvertwidget.cpp
; Line 86
	push	ebp
	mov	ebp, esp
	sub	esp, 8
	mov	DWORD PTR _this$[ebp], ecx
; Line 87
	mov	ecx, DWORD PTR _this$[ebp]
	add	ecx, 4
	call	??C?$QScopedPointer@VQObjectData@@U?$QScopedPointerDeleter@VQObjectData@@@@@@QBEPAVQObjectData@@XZ ; QScopedPointer<QObjectData,QScopedPointerDeleter<QObjectData> >::operator->
	cmp	DWORD PTR [eax+24], 0
	je	SHORT $LN3@metaObject
	mov	ecx, DWORD PTR _this$[ebp]
	add	ecx, 4
	call	??C?$QScopedPointer@VQObjectData@@U?$QScopedPointerDeleter@VQObjectData@@@@@@QBEPAVQObjectData@@XZ ; QScopedPointer<QObjectData,QScopedPointerDeleter<QObjectData> >::operator->
	mov	ecx, eax
	call	DWORD PTR __imp_?dynamicMetaObject@QObjectData@@QBEPAUQMetaObject@@XZ
	mov	DWORD PTR tv82[ebp], eax
	jmp	SHORT $LN4@metaObject
$LN3@metaObject:
	mov	DWORD PTR tv82[ebp], OFFSET ?staticMetaObject@CAddressConvertWidget@@2UQMetaObject@@B ; CAddressConvertWidget::staticMetaObject
$LN4@metaObject:
	mov	eax, DWORD PTR tv82[ebp]
; Line 88
	mov	esp, ebp
	pop	ebp
	ret	0
?metaObject@CAddressConvertWidget@@UBEPBUQMetaObject@@XZ ENDP ; CAddressConvertWidget::metaObject
_TEXT	ENDS
; Function compile flags: /Odtp
;	COMDAT ??C?$QScopedPointer@VQObjectData@@U?$QScopedPointerDeleter@VQObjectData@@@@@@QBEPAVQObjectData@@XZ
_TEXT	SEGMENT
_this$ = -4						; size = 4
??C?$QScopedPointer@VQObjectData@@U?$QScopedPointerDeleter@VQObjectData@@@@@@QBEPAVQObjectData@@XZ PROC ; QScopedPointer<QObjectData,QScopedPointerDeleter<QObjectData> >::operator->, COMDAT
; _this$ = ecx
; File d:\qt\qt5.9.8\5.9.8\msvc2015\include\qtcore\qscopedpointer.h
; Line 117
	push	ebp
	mov	ebp, esp
	push	ecx
	mov	DWORD PTR _this$[ebp], ecx
; Line 118
	mov	eax, DWORD PTR _this$[ebp]
	mov	eax, DWORD PTR [eax]
; Line 119
	mov	esp, ebp
	pop	ebp
	ret	0
??C?$QScopedPointer@VQObjectData@@U?$QScopedPointerDeleter@VQObjectData@@@@@@QBEPAVQObjectData@@XZ ENDP ; QScopedPointer<QObjectData,QScopedPointerDeleter<QObjectData> >::operator->
_TEXT	ENDS
; Function compile flags: /Odtp
;	COMDAT ?__empty_global_delete@@YAXPAXI@Z
_TEXT	SEGMENT
___formal$ = 8						; size = 4
___formal$ = 12						; size = 4
?__empty_global_delete@@YAXPAXI@Z PROC			; __empty_global_delete, COMDAT
; File d:\code\qt\mypetools\mypetools\debug\moc\moc_caddressconvertwidget.cpp
; Line 116
	push	ebp
	mov	ebp, esp
	pop	ebp
	ret	0
?__empty_global_delete@@YAXPAXI@Z ENDP			; __empty_global_delete
_TEXT	ENDS
; Function compile flags: /Odtp
;	COMDAT ?__empty_global_delete@@YAXPAX@Z
_TEXT	SEGMENT
___formal$ = 8						; size = 4
?__empty_global_delete@@YAXPAX@Z PROC			; __empty_global_delete, COMDAT
; File d:\code\qt\mypetools\mypetools\debug\moc\moc_caddressconvertwidget.cpp
; Line 116
	push	ebp
	mov	ebp, esp
	pop	ebp
	ret	0
?__empty_global_delete@@YAXPAX@Z ENDP			; __empty_global_delete
_TEXT	ENDS
END
